; Listing generated by Microsoft (R) Optimizing Compiler Version 19.33.31630.0 

	TITLE	G:\Meu Drive\Pessoal\Backup\pc_casa\Documents\UVA\Estrutura de Dados 1\Estudos\Estudos\Debug\estudo_de_pointeiros.obj
	.686P
	.XMM
	include listing.inc
	.model	flat

INCLUDELIB MSVCRTD
INCLUDELIB OLDNAMES

msvcjmc	SEGMENT
__529D0EAA_concurrencysal@h DB 01H
__7EC34687_sal@h DB 01H
__35A2D2DF_vadefs@h DB 01H
__5F022EB5_vcruntime@h DB 01H
__6569C2CA_corecrt@h DB 01H
__A2143F22_corecrt_stdio_config@h DB 01H
__829E1958_corecrt_wstdio@h DB 01H
__6DFAE8B8_stdio@h DB 01H
__BBDF6BA8_xkeycheck@h DB 01H
__7F8F4960_yvals_core@h DB 01H
__F3D99286_limits@h DB 01H
__F2E1951A_climits DB 01H
__8B8B49C3_vcruntime_new@h DB 01H
__5021BF8A_vcruntime_new_debug@h DB 01H
__49916C16_crtdbg@h DB 01H
__0FF1727D_crtdefs@h DB 01H
__327B4A79_use_ansi@h DB 01H
__C04E0157_yvals@h DB 01H
__741AE07E_corecrt_math@h DB 01H
__91D68F2D_math@h DB 01H
__6C20D4D3_corecrt_malloc@h DB 01H
__C9393812_stddef@h DB 01H
__D493B9BD_corecrt_search@h DB 01H
__1473E23E_corecrt_wstdlib@h DB 01H
__B49664B7_stdlib@h DB 01H
__760EB7E8_cstdlib DB 01H
__C9757830_xtr1common DB 01H
__E5CDC221_intrin0@inl@h DB 01H
__16DCCB76_intrin0@h DB 01H
__1C794830_cmath DB 01H
__46E22952_cstdio DB 01H
__CDDAF8CA_errno@h DB 01H
__74AC4223_vcruntime_string@h DB 01H
__1FEB9909_corecrt_memcpy_s@h DB 01H
__A751F051_corecrt_memory@h DB 01H
__9200769A_corecrt_wstring@h DB 01H
__32E5F013_string@h DB 01H
__3A9C1F08_cstring DB 01H
__C6E16F6F_corecrt_wconio@h DB 01H
__5DB64B66_corecrt_wctype@h DB 01H
__CB8D9B53_corecrt_wdirect@h DB 01H
__A9063C41_corecrt_share@h DB 01H
__6D390390_corecrt_wio@h DB 01H
__61BDDCD5_corecrt_wprocess@h DB 01H
__1157D6BA_corecrt_wtime@h DB 01H
__64F617E8_types@h DB 01H
__1DC1E279_stat@h DB 01H
__93DC0B45_wchar@h DB 01H
__DC69FF01_cwchar DB 01H
__D3C56D45_cstddef DB 01H
__485B7899_initializer_list DB 01H
__B61CA571_xstddef DB 01H
__9FA97A37_iosfwd DB 01H
__4DAFBCB9_stdint@h DB 01H
__CB505695_cstdint DB 01H
__F576AD63_type_traits DB 01H
__41033263_utility DB 01H
__2177C444_xutility DB 01H
__30DB7304_iterator DB 01H
__5B81F060_share@h DB 01H
__33989847___msvc_system_error_abi@hpp DB 01H
__DBC35DA9_cerrno DB 01H
__20BB4341_malloc@h DB 01H
__3C5D8049_corecrt_terminate@h DB 01H
__5569C08B_eh@h DB 01H
__58CFBAD8_vcruntime_exception@h DB 01H
__C7AE1CEB_exception DB 01H
__158E8E48_float@h DB 01H
__35A6E2D5_cfloat DB 01H
__A7274850_isa_availability@h DB 01H
__5340AFB1_limits DB 01H
__C7AADC23_new DB 01H
__CDA2903D_xatomic@h DB 01H
__2B9651A0_xmemory DB 01H
__5F45D73C_xstring DB 01H
__4EE026B6_stdexcept DB 01H
__3C179730_xcall_once@h DB 01H
__68DB1458_xerrc@h DB 01H
__A0B61CF9_time@h DB 01H
__DACAD438_ctime DB 01H
__97B32705_xtimec@h DB 01H
__53357DCA_xthreads@h DB 01H
__3875F373_atomic DB 01H
__834A8510_system_error DB 01H
__B3F9668E_vcruntime_typeinfo@h DB 01H
__51A8375D_typeinfo DB 01H
__EFEEA33F_memory DB 01H
__C3ABF430_xfacet DB 01H
__215922A6___msvc_xlocinfo_types@hpp DB 01H
__B2D2BA86_ctype@h DB 01H
__4929CEF5_cctype DB 01H
__A3D09DBA_locale@h DB 01H
__E5A26B39_clocale DB 01H
__4E21D495_xlocinfo DB 01H
__807BA30D_xlocale DB 01H
__77C4A386_xiosbase DB 01H
__4C409E0A_streambuf DB 01H
__1EFCC51A_xlocnum DB 01H
__3F67E635_ios DB 01H
__936B79C9_ostream DB 01H
__F0BB4CF3_istream DB 01H
__430EBE5B_iostream DB 01H
__D61128BD_estudo_de_pointeiros@cpp DB 01H
msvcjmc	ENDS
PUBLIC	?__empty_global_delete@@YAXPAX@Z		; __empty_global_delete
PUBLIC	?__empty_global_delete@@YAXPAXI@Z		; __empty_global_delete
PUBLIC	?main_old@@YAHXZ				; main_old
PUBLIC	__JustMyCode_Default
EXTRN	??_U@YAPAXI@Z:PROC				; operator new[]
EXTRN	??_V@YAXPAX@Z:PROC				; operator delete[]
EXTRN	_memset:PROC
EXTRN	__imp_?get@?$basic_istream@DU?$char_traits@D@std@@@std@@QAEHXZ:PROC
EXTRN	@_RTC_CheckStackVars@8:PROC
EXTRN	@__CheckForDebuggerJustMyCode@4:PROC
EXTRN	@__security_check_cookie@4:PROC
EXTRN	__RTC_CheckEsp:PROC
EXTRN	__RTC_InitBase:PROC
EXTRN	__RTC_Shutdown:PROC
EXTRN	__imp_?cin@std@@3V?$basic_istream@DU?$char_traits@D@std@@@1@A:BYTE
EXTRN	___security_cookie:DWORD
;	COMDAT rtc$TMZ
rtc$TMZ	SEGMENT
__RTC_Shutdown.rtc$TMZ DD FLAT:__RTC_Shutdown
rtc$TMZ	ENDS
;	COMDAT rtc$IMZ
rtc$IMZ	SEGMENT
__RTC_InitBase.rtc$IMZ DD FLAT:__RTC_InitBase
rtc$IMZ	ENDS
;	COMDAT voltbl
voltbl	SEGMENT
_volmd	DB	022H
	DB	0c6H
voltbl	ENDS
; Function compile flags: /Odt
;	COMDAT __JustMyCode_Default
_TEXT	SEGMENT
__JustMyCode_Default PROC				; COMDAT
	push	ebp
	mov	ebp, esp
	pop	ebp
	ret	0
__JustMyCode_Default ENDP
_TEXT	ENDS
; Function compile flags: /Odtp /RTCsu /ZI
; File G:\Meu Drive\Pessoal\Backup\pc_casa\Documents\UVA\Estrutura de Dados 1\Estudos\Estudos\estudo_de_pointeiros.cpp
;	COMDAT ?main_old@@YAHXZ
_TEXT	SEGMENT
tv74 = -248						; size = 4
$T1 = -240						; size = 4
$T2 = -228						; size = 4
_prt$ = -24						; size = 4
_buffer$ = -12						; size = 4
__$ArrayPad$ = -4					; size = 4
?main_old@@YAHXZ PROC					; main_old, COMDAT

; 6    : {

	push	ebp
	mov	ebp, esp
	sub	esp, 248				; 000000f8H
	push	ebx
	push	esi
	push	edi
	lea	edi, DWORD PTR [ebp-56]
	mov	ecx, 14					; 0000000eH
	mov	eax, -858993460				; ccccccccH
	rep stosd
	mov	eax, DWORD PTR ___security_cookie
	xor	eax, ebp
	mov	DWORD PTR __$ArrayPad$[ebp], eax
	mov	ecx, OFFSET __D61128BD_estudo_de_pointeiros@cpp
	call	@__CheckForDebuggerJustMyCode@4

; 7    : 	char *buffer = new char[8];	

	push	8
	call	??_U@YAPAXI@Z				; operator new[]
	add	esp, 4
	mov	DWORD PTR $T2[ebp], eax
	mov	eax, DWORD PTR $T2[ebp]
	mov	DWORD PTR _buffer$[ebp], eax

; 8    : 	memset(buffer, 0, 8);	

	push	8
	push	0
	mov	eax, DWORD PTR _buffer$[ebp]
	push	eax
	call	_memset
	add	esp, 12					; 0000000cH

; 9    : 
; 10   : 	char** prt = &buffer;

	lea	eax, DWORD PTR _buffer$[ebp]
	mov	DWORD PTR _prt$[ebp], eax

; 11   : 
; 12   : 	delete[] buffer;

	mov	eax, DWORD PTR _buffer$[ebp]
	mov	DWORD PTR $T1[ebp], eax
	mov	ecx, DWORD PTR $T1[ebp]
	push	ecx
	call	??_V@YAXPAX@Z				; operator delete[]
	add	esp, 4
	cmp	DWORD PTR $T1[ebp], 0
	jne	SHORT $LN3@main_old
	mov	DWORD PTR tv74[ebp], 0
	jmp	SHORT $LN4@main_old
$LN3@main_old:
	mov	DWORD PTR _buffer$[ebp], 33059		; 00008123H
	mov	edx, DWORD PTR _buffer$[ebp]
	mov	DWORD PTR tv74[ebp], edx
$LN4@main_old:

; 13   : 	std::cin.get();

	mov	esi, esp
	mov	ecx, DWORD PTR __imp_?cin@std@@3V?$basic_istream@DU?$char_traits@D@std@@@1@A
	call	DWORD PTR __imp_?get@?$basic_istream@DU?$char_traits@D@std@@@std@@QAEHXZ
	cmp	esi, esp
	call	__RTC_CheckEsp

; 14   : 	return EXIT_SUCCESS;

	xor	eax, eax

; 15   : }

	push	edx
	mov	ecx, ebp
	push	eax
	lea	edx, DWORD PTR $LN7@main_old
	call	@_RTC_CheckStackVars@8
	pop	eax
	pop	edx
	pop	edi
	pop	esi
	pop	ebx
	mov	ecx, DWORD PTR __$ArrayPad$[ebp]
	xor	ecx, ebp
	call	@__security_check_cookie@4
	add	esp, 248				; 000000f8H
	cmp	ebp, esp
	call	__RTC_CheckEsp
	mov	esp, ebp
	pop	ebp
	ret	0
	npad	3
$LN7@main_old:
	DD	1
	DD	$LN6@main_old
$LN6@main_old:
	DD	-12					; fffffff4H
	DD	4
	DD	$LN5@main_old
$LN5@main_old:
	DB	98					; 00000062H
	DB	117					; 00000075H
	DB	102					; 00000066H
	DB	102					; 00000066H
	DB	101					; 00000065H
	DB	114					; 00000072H
	DB	0
?main_old@@YAHXZ ENDP					; main_old
_TEXT	ENDS
; Function compile flags: /Odtp /RTCsu /ZI
; File G:\Meu Drive\Pessoal\Backup\pc_casa\Documents\UVA\Estrutura de Dados 1\Estudos\Estudos\estudo_de_pointeiros.cpp
;	COMDAT ?__empty_global_delete@@YAXPAXI@Z
_TEXT	SEGMENT
___formal$ = 8						; size = 4
___formal$ = 12						; size = 4
?__empty_global_delete@@YAXPAXI@Z PROC			; __empty_global_delete, COMDAT

	push	ebp
	mov	ebp, esp
	sub	esp, 192				; 000000c0H
	push	ebx
	push	esi
	push	edi
	mov	edi, ebp
	xor	ecx, ecx
	mov	eax, -858993460				; ccccccccH
	rep stosd
	mov	ecx, OFFSET __D61128BD_estudo_de_pointeiros@cpp
	call	@__CheckForDebuggerJustMyCode@4
	pop	edi
	pop	esi
	pop	ebx
	add	esp, 192				; 000000c0H
	cmp	ebp, esp
	call	__RTC_CheckEsp
	mov	esp, ebp
	pop	ebp
	ret	0
?__empty_global_delete@@YAXPAXI@Z ENDP			; __empty_global_delete
_TEXT	ENDS
; Function compile flags: /Odtp /RTCsu /ZI
; File G:\Meu Drive\Pessoal\Backup\pc_casa\Documents\UVA\Estrutura de Dados 1\Estudos\Estudos\estudo_de_pointeiros.cpp
;	COMDAT ?__empty_global_delete@@YAXPAX@Z
_TEXT	SEGMENT
___formal$ = 8						; size = 4
?__empty_global_delete@@YAXPAX@Z PROC			; __empty_global_delete, COMDAT

	push	ebp
	mov	ebp, esp
	sub	esp, 192				; 000000c0H
	push	ebx
	push	esi
	push	edi
	mov	edi, ebp
	xor	ecx, ecx
	mov	eax, -858993460				; ccccccccH
	rep stosd
	mov	ecx, OFFSET __D61128BD_estudo_de_pointeiros@cpp
	call	@__CheckForDebuggerJustMyCode@4
	pop	edi
	pop	esi
	pop	ebx
	add	esp, 192				; 000000c0H
	cmp	ebp, esp
	call	__RTC_CheckEsp
	mov	esp, ebp
	pop	ebp
	ret	0
?__empty_global_delete@@YAXPAX@Z ENDP			; __empty_global_delete
_TEXT	ENDS
END
