; Listing generated by Microsoft (R) Optimizing Compiler Version 19.33.31630.0 

	TITLE	I:\Meu Drive\Pessoal\Backup\pc_casa\Documents\UVA\Estrutura de Dados 1\Estudos\Estudos\Debug\stack_vs_heap.obj
	.686P
	.XMM
	include listing.inc
	.model	flat

INCLUDELIB MSVCRTD
INCLUDELIB OLDNAMES

msvcjmc	SEGMENT
__529D0EAA_concurrencysal@h DB 01H
__7EC34687_sal@h DB 01H
__35A2D2DF_vadefs@h DB 01H
__5F022EB5_vcruntime@h DB 01H
__6569C2CA_corecrt@h DB 01H
__A2143F22_corecrt_stdio_config@h DB 01H
__829E1958_corecrt_wstdio@h DB 01H
__6DFAE8B8_stdio@h DB 01H
__BBDF6BA8_xkeycheck@h DB 01H
__7F8F4960_yvals_core@h DB 01H
__F3D99286_limits@h DB 01H
__F2E1951A_climits DB 01H
__8B8B49C3_vcruntime_new@h DB 01H
__5021BF8A_vcruntime_new_debug@h DB 01H
__49916C16_crtdbg@h DB 01H
__0FF1727D_crtdefs@h DB 01H
__327B4A79_use_ansi@h DB 01H
__C04E0157_yvals@h DB 01H
__741AE07E_corecrt_math@h DB 01H
__91D68F2D_math@h DB 01H
__6C20D4D3_corecrt_malloc@h DB 01H
__C9393812_stddef@h DB 01H
__D493B9BD_corecrt_search@h DB 01H
__1473E23E_corecrt_wstdlib@h DB 01H
__B49664B7_stdlib@h DB 01H
__760EB7E8_cstdlib DB 01H
__C9757830_xtr1common DB 01H
__E5CDC221_intrin0@inl@h DB 01H
__16DCCB76_intrin0@h DB 01H
__1C794830_cmath DB 01H
__46E22952_cstdio DB 01H
__CDDAF8CA_errno@h DB 01H
__74AC4223_vcruntime_string@h DB 01H
__1FEB9909_corecrt_memcpy_s@h DB 01H
__A751F051_corecrt_memory@h DB 01H
__9200769A_corecrt_wstring@h DB 01H
__32E5F013_string@h DB 01H
__3A9C1F08_cstring DB 01H
__C6E16F6F_corecrt_wconio@h DB 01H
__5DB64B66_corecrt_wctype@h DB 01H
__CB8D9B53_corecrt_wdirect@h DB 01H
__A9063C41_corecrt_share@h DB 01H
__6D390390_corecrt_wio@h DB 01H
__61BDDCD5_corecrt_wprocess@h DB 01H
__1157D6BA_corecrt_wtime@h DB 01H
__64F617E8_types@h DB 01H
__1DC1E279_stat@h DB 01H
__93DC0B45_wchar@h DB 01H
__DC69FF01_cwchar DB 01H
__D3C56D45_cstddef DB 01H
__485B7899_initializer_list DB 01H
__B61CA571_xstddef DB 01H
__9FA97A37_iosfwd DB 01H
__4DAFBCB9_stdint@h DB 01H
__CB505695_cstdint DB 01H
__F576AD63_type_traits DB 01H
__41033263_utility DB 01H
__2177C444_xutility DB 01H
__30DB7304_iterator DB 01H
__5B81F060_share@h DB 01H
__33989847___msvc_system_error_abi@hpp DB 01H
__DBC35DA9_cerrno DB 01H
__20BB4341_malloc@h DB 01H
__3C5D8049_corecrt_terminate@h DB 01H
__5569C08B_eh@h DB 01H
__58CFBAD8_vcruntime_exception@h DB 01H
__C7AE1CEB_exception DB 01H
__158E8E48_float@h DB 01H
__35A6E2D5_cfloat DB 01H
__A7274850_isa_availability@h DB 01H
__5340AFB1_limits DB 01H
__C7AADC23_new DB 01H
__CDA2903D_xatomic@h DB 01H
__2B9651A0_xmemory DB 01H
__5F45D73C_xstring DB 01H
__4EE026B6_stdexcept DB 01H
__3C179730_xcall_once@h DB 01H
__68DB1458_xerrc@h DB 01H
__A0B61CF9_time@h DB 01H
__DACAD438_ctime DB 01H
__97B32705_xtimec@h DB 01H
__53357DCA_xthreads@h DB 01H
__3875F373_atomic DB 01H
__834A8510_system_error DB 01H
__B3F9668E_vcruntime_typeinfo@h DB 01H
__51A8375D_typeinfo DB 01H
__EFEEA33F_memory DB 01H
__C3ABF430_xfacet DB 01H
__215922A6___msvc_xlocinfo_types@hpp DB 01H
__B2D2BA86_ctype@h DB 01H
__4929CEF5_cctype DB 01H
__A3D09DBA_locale@h DB 01H
__E5A26B39_clocale DB 01H
__4E21D495_xlocinfo DB 01H
__807BA30D_xlocale DB 01H
__77C4A386_xiosbase DB 01H
__4C409E0A_streambuf DB 01H
__1EFCC51A_xlocnum DB 01H
__3F67E635_ios DB 01H
__936B79C9_ostream DB 01H
__F0BB4CF3_istream DB 01H
__430EBE5B_iostream DB 01H
__9B3D25A3_string DB 01H
__25C72A97_stack_vs_heap@cpp DB 01H
msvcjmc	ENDS
PUBLIC	?__empty_global_delete@@YAXPAX@Z		; __empty_global_delete
PUBLIC	?__empty_global_delete@@YAXPAXI@Z		; __empty_global_delete
PUBLIC	??0Vector3@@QAE@XZ				; Vector3::Vector3
PUBLIC	_main
PUBLIC	__JustMyCode_Default
PUBLIC	__real@41200000
PUBLIC	__real@41300000
PUBLIC	__real@41400000
EXTRN	??2@YAPAXI@Z:PROC				; operator new
EXTRN	??3@YAXPAXI@Z:PROC				; operator delete
EXTRN	??_U@YAPAXI@Z:PROC				; operator new[]
EXTRN	??_V@YAXPAX@Z:PROC				; operator delete[]
EXTRN	__imp_?get@?$basic_istream@DU?$char_traits@D@std@@@std@@QAEHXZ:PROC
EXTRN	@_RTC_CheckStackVars@8:PROC
EXTRN	@__CheckForDebuggerJustMyCode@4:PROC
EXTRN	@__security_check_cookie@4:PROC
EXTRN	__RTC_CheckEsp:PROC
EXTRN	__RTC_InitBase:PROC
EXTRN	__RTC_Shutdown:PROC
EXTRN	___CxxFrameHandler3:PROC
EXTRN	__imp_?cin@std@@3V?$basic_istream@DU?$char_traits@D@std@@@1@A:BYTE
EXTRN	___security_cookie:DWORD
EXTRN	__fltused:DWORD
;	COMDAT __real@41400000
CONST	SEGMENT
__real@41400000 DD 041400000r			; 12
CONST	ENDS
;	COMDAT __real@41300000
CONST	SEGMENT
__real@41300000 DD 041300000r			; 11
CONST	ENDS
;	COMDAT __real@41200000
CONST	SEGMENT
__real@41200000 DD 041200000r			; 10
CONST	ENDS
;	COMDAT rtc$TMZ
rtc$TMZ	SEGMENT
__RTC_Shutdown.rtc$TMZ DD FLAT:__RTC_Shutdown
rtc$TMZ	ENDS
;	COMDAT rtc$IMZ
rtc$IMZ	SEGMENT
__RTC_InitBase.rtc$IMZ DD FLAT:__RTC_InitBase
rtc$IMZ	ENDS
;	COMDAT voltbl
voltbl	SEGMENT
_volmd	DB	020H
	DB	02dH
voltbl	ENDS
;	COMDAT voltbl
voltbl	SEGMENT
_volmd	DW	033H
	DW	0286H
voltbl	ENDS
;	COMDAT xdata$x
xdata$x	SEGMENT
__unwindtable$_main DD 0ffffffffH
	DD	FLAT:__unwindfunclet$_main$0
__ehfuncinfo$_main DD 019930522H
	DD	01H
	DD	FLAT:__unwindtable$_main
	DD	2 DUP(00H)
	DD	2 DUP(00H)
	DD	00H
	DD	01H
xdata$x	ENDS
; Function compile flags: /Odt
;	COMDAT __JustMyCode_Default
_TEXT	SEGMENT
__JustMyCode_Default PROC				; COMDAT
	push	ebp
	mov	ebp, esp
	pop	ebp
	ret	0
__JustMyCode_Default ENDP
_TEXT	ENDS
; Function compile flags: /Odtp /RTCsu /ZI
; File I:\Meu Drive\Pessoal\Backup\pc_casa\Documents\UVA\Estrutura de Dados 1\Estudos\Estudos\stack_vs_heap.cpp
;	COMDAT _main
_TEXT	SEGMENT
tv148 = -392						; size = 4
tv144 = -392						; size = 4
tv141 = -392						; size = 4
tv138 = -392						; size = 4
$T2 = -384						; size = 4
$T3 = -372						; size = 4
$T4 = -360						; size = 4
$T5 = -348						; size = 4
$T6 = -336						; size = 4
$T7 = -324						; size = 4
$T8 = -312						; size = 4
_heap_vector$ = -108					; size = 4
_heap_array$ = -96					; size = 4
_heap_value$ = -84					; size = 4
_vector$ = -72						; size = 12
_array$ = -52						; size = 20
_value$ = -24						; size = 4
__$ArrayPad$ = -16					; size = 4
__$EHRec$ = -12						; size = 12
_main	PROC						; COMDAT

; 14   : {

	push	ebp
	mov	ebp, esp
	push	-1
	push	__ehhandler$_main
	mov	eax, DWORD PTR fs:0
	push	eax
	sub	esp, 380				; 0000017cH
	push	ebx
	push	esi
	push	edi
	lea	edi, DWORD PTR [ebp-200]
	mov	ecx, 47					; 0000002fH
	mov	eax, -858993460				; ccccccccH
	rep stosd
	mov	eax, DWORD PTR ___security_cookie
	xor	eax, ebp
	mov	DWORD PTR __$ArrayPad$[ebp], eax
	push	eax
	lea	eax, DWORD PTR __$EHRec$[ebp]
	mov	DWORD PTR fs:0, eax
	mov	ecx, OFFSET __25C72A97_stack_vs_heap@cpp
	call	@__CheckForDebuggerJustMyCode@4

; 15   : 	/*Stack*/
; 16   : 	int value = 5; // Stack Allocation

	mov	DWORD PTR _value$[ebp], 5

; 17   : 	int array[5];
; 18   : 	array[0] = 1;

	mov	eax, 4
	imul	ecx, eax, 0
	mov	DWORD PTR _array$[ebp+ecx], 1

; 19   : 	array[1] = 2;

	mov	eax, 4
	shl	eax, 0
	mov	DWORD PTR _array$[ebp+eax], 2

; 20   : 	array[2] = 3;

	mov	eax, 4
	shl	eax, 1
	mov	DWORD PTR _array$[ebp+eax], 3

; 21   : 	array[3] = 4;

	mov	eax, 4
	imul	ecx, eax, 3
	mov	DWORD PTR _array$[ebp+ecx], 4

; 22   : 	array[4] = 5;

	mov	eax, 4
	shl	eax, 2
	mov	DWORD PTR _array$[ebp+eax], 5

; 23   : 	Vector3 vector;

	lea	ecx, DWORD PTR _vector$[ebp]
	call	??0Vector3@@QAE@XZ			; Vector3::Vector3

; 24   : 
; 25   : 
; 26   : 	/*Heap*/
; 27   : 	int* heap_value = new int; // Heap Allocation, o new faz a alocação da memória ser no Heap, malloc em C

	push	4
	call	??2@YAPAXI@Z				; operator new
	add	esp, 4
	mov	DWORD PTR $T8[ebp], eax
	mov	eax, DWORD PTR $T8[ebp]
	mov	DWORD PTR _heap_value$[ebp], eax

; 28   : 	*heap_value = 5;

	mov	eax, DWORD PTR _heap_value$[ebp]
	mov	DWORD PTR [eax], 5

; 29   : 	int* heap_array = new int[5];

	push	20					; 00000014H
	call	??_U@YAPAXI@Z				; operator new[]
	add	esp, 4
	mov	DWORD PTR $T7[ebp], eax
	mov	eax, DWORD PTR $T7[ebp]
	mov	DWORD PTR _heap_array$[ebp], eax

; 30   : 	heap_array[0] = 1;

	mov	eax, 4
	imul	ecx, eax, 0
	mov	edx, DWORD PTR _heap_array$[ebp]
	mov	DWORD PTR [edx+ecx], 1

; 31   : 	heap_array[1] = 2;

	mov	eax, 4
	shl	eax, 0
	mov	ecx, DWORD PTR _heap_array$[ebp]
	mov	DWORD PTR [ecx+eax], 2

; 32   : 	heap_array[2] = 3;

	mov	eax, 4
	shl	eax, 1
	mov	ecx, DWORD PTR _heap_array$[ebp]
	mov	DWORD PTR [ecx+eax], 3

; 33   : 	heap_array[3] = 4;

	mov	eax, 4
	imul	ecx, eax, 3
	mov	edx, DWORD PTR _heap_array$[ebp]
	mov	DWORD PTR [edx+ecx], 4

; 34   : 	heap_array[4] = 5;

	mov	eax, 4
	shl	eax, 2
	mov	ecx, DWORD PTR _heap_array$[ebp]
	mov	DWORD PTR [ecx+eax], 5

; 35   : 	Vector3* heap_vector = new Vector3();

	push	12					; 0000000cH
	call	??2@YAPAXI@Z				; operator new
	add	esp, 4
	mov	DWORD PTR $T5[ebp], eax
	mov	DWORD PTR __$EHRec$[ebp+8], 0
	cmp	DWORD PTR $T5[ebp], 0
	je	SHORT $LN3@main
	mov	ecx, DWORD PTR $T5[ebp]
	call	??0Vector3@@QAE@XZ			; Vector3::Vector3
	mov	DWORD PTR tv138[ebp], eax
	jmp	SHORT $LN4@main
$LN3@main:
	mov	DWORD PTR tv138[ebp], 0
$LN4@main:
	mov	eax, DWORD PTR tv138[ebp]
	mov	DWORD PTR $T6[ebp], eax
	mov	DWORD PTR __$EHRec$[ebp+8], -1
	mov	ecx, DWORD PTR $T6[ebp]
	mov	DWORD PTR _heap_vector$[ebp], ecx

; 36   : 
; 37   : 	delete heap_value;

	mov	eax, DWORD PTR _heap_value$[ebp]
	mov	DWORD PTR $T4[ebp], eax
	push	4
	mov	ecx, DWORD PTR $T4[ebp]
	push	ecx
	call	??3@YAXPAXI@Z				; operator delete
	add	esp, 8
	cmp	DWORD PTR $T4[ebp], 0
	jne	SHORT $LN5@main
	mov	DWORD PTR tv141[ebp], 0
	jmp	SHORT $LN6@main
$LN5@main:
	mov	DWORD PTR _heap_value$[ebp], 33059	; 00008123H
	mov	edx, DWORD PTR _heap_value$[ebp]
	mov	DWORD PTR tv141[ebp], edx
$LN6@main:

; 38   : 	delete[] heap_array;

	mov	eax, DWORD PTR _heap_array$[ebp]
	mov	DWORD PTR $T3[ebp], eax
	mov	ecx, DWORD PTR $T3[ebp]
	push	ecx
	call	??_V@YAXPAX@Z				; operator delete[]
	add	esp, 4
	cmp	DWORD PTR $T3[ebp], 0
	jne	SHORT $LN7@main
	mov	DWORD PTR tv144[ebp], 0
	jmp	SHORT $LN8@main
$LN7@main:
	mov	DWORD PTR _heap_array$[ebp], 33059	; 00008123H
	mov	edx, DWORD PTR _heap_array$[ebp]
	mov	DWORD PTR tv144[ebp], edx
$LN8@main:

; 39   : 	delete heap_vector;

	mov	eax, DWORD PTR _heap_vector$[ebp]
	mov	DWORD PTR $T2[ebp], eax
	push	12					; 0000000cH
	mov	ecx, DWORD PTR $T2[ebp]
	push	ecx
	call	??3@YAXPAXI@Z				; operator delete
	add	esp, 8
	cmp	DWORD PTR $T2[ebp], 0
	jne	SHORT $LN9@main
	mov	DWORD PTR tv148[ebp], 0
	jmp	SHORT $LN10@main
$LN9@main:
	mov	DWORD PTR _heap_vector$[ebp], 33059	; 00008123H
	mov	edx, DWORD PTR _heap_vector$[ebp]
	mov	DWORD PTR tv148[ebp], edx
$LN10@main:

; 40   : 
; 41   : 	std::cin.get();

	mov	esi, esp
	mov	ecx, DWORD PTR __imp_?cin@std@@3V?$basic_istream@DU?$char_traits@D@std@@@1@A
	call	DWORD PTR __imp_?get@?$basic_istream@DU?$char_traits@D@std@@@std@@QAEHXZ
	cmp	esi, esp
	call	__RTC_CheckEsp

; 42   : 	return EXIT_SUCCESS;

	xor	eax, eax

; 43   : }

	push	edx
	mov	ecx, ebp
	push	eax
	lea	edx, DWORD PTR $LN16@main
	call	@_RTC_CheckStackVars@8
	pop	eax
	pop	edx
	mov	ecx, DWORD PTR __$EHRec$[ebp]
	mov	DWORD PTR fs:0, ecx
	pop	ecx
	pop	edi
	pop	esi
	pop	ebx
	mov	ecx, DWORD PTR __$ArrayPad$[ebp]
	xor	ecx, ebp
	call	@__security_check_cookie@4
	add	esp, 392				; 00000188H
	cmp	ebp, esp
	call	__RTC_CheckEsp
	mov	esp, ebp
	pop	ebp
	ret	0
	npad	3
$LN16@main:
	DD	2
	DD	$LN15@main
$LN15@main:
	DD	-52					; ffffffccH
	DD	20					; 00000014H
	DD	$LN12@main
	DD	-72					; ffffffb8H
	DD	12					; 0000000cH
	DD	$LN13@main
$LN13@main:
	DB	118					; 00000076H
	DB	101					; 00000065H
	DB	99					; 00000063H
	DB	116					; 00000074H
	DB	111					; 0000006fH
	DB	114					; 00000072H
	DB	0
$LN12@main:
	DB	97					; 00000061H
	DB	114					; 00000072H
	DB	114					; 00000072H
	DB	97					; 00000061H
	DB	121					; 00000079H
	DB	0
_TEXT	ENDS
;	COMDAT text$x
text$x	SEGMENT
__unwindfunclet$_main$0:
	push	12					; 0000000cH
	mov	eax, DWORD PTR $T5[ebp]
	push	eax
	call	??3@YAXPAXI@Z				; operator delete
	add	esp, 8
	ret	0
	int	3
	int	3
	int	3
	int	3
	int	3
__ehhandler$_main:
	npad	1
	npad	1
	mov	edx, DWORD PTR [esp+8]
	lea	eax, DWORD PTR [edx+12]
	mov	ecx, DWORD PTR [edx-396]
	xor	ecx, eax
	call	@__security_check_cookie@4
	mov	ecx, DWORD PTR [edx-4]
	xor	ecx, eax
	call	@__security_check_cookie@4
	mov	eax, OFFSET __ehfuncinfo$_main
	jmp	___CxxFrameHandler3
text$x	ENDS
_main	ENDP
; Function compile flags: /Odtp /RTCsu /ZI
; File I:\Meu Drive\Pessoal\Backup\pc_casa\Documents\UVA\Estrutura de Dados 1\Estudos\Estudos\stack_vs_heap.cpp
;	COMDAT ??0Vector3@@QAE@XZ
_TEXT	SEGMENT
_this$ = -8						; size = 4
??0Vector3@@QAE@XZ PROC					; Vector3::Vector3, COMDAT
; _this$ = ecx

; 9    : 	Vector3()

	push	ebp
	mov	ebp, esp
	sub	esp, 204				; 000000ccH
	push	ebx
	push	esi
	push	edi
	push	ecx
	lea	edi, DWORD PTR [ebp-12]
	mov	ecx, 3
	mov	eax, -858993460				; ccccccccH
	rep stosd
	pop	ecx
	mov	DWORD PTR _this$[ebp], ecx
	mov	ecx, OFFSET __25C72A97_stack_vs_heap@cpp
	call	@__CheckForDebuggerJustMyCode@4

; 10   : 		: x(10), y(11), z(12) {}

	mov	eax, DWORD PTR _this$[ebp]
	movss	xmm0, DWORD PTR __real@41200000
	movss	DWORD PTR [eax], xmm0
	mov	eax, DWORD PTR _this$[ebp]
	movss	xmm0, DWORD PTR __real@41300000
	movss	DWORD PTR [eax+4], xmm0
	mov	eax, DWORD PTR _this$[ebp]
	movss	xmm0, DWORD PTR __real@41400000
	movss	DWORD PTR [eax+8], xmm0
	mov	eax, DWORD PTR _this$[ebp]
	pop	edi
	pop	esi
	pop	ebx
	add	esp, 204				; 000000ccH
	cmp	ebp, esp
	call	__RTC_CheckEsp
	mov	esp, ebp
	pop	ebp
	ret	0
??0Vector3@@QAE@XZ ENDP					; Vector3::Vector3
_TEXT	ENDS
; Function compile flags: /Odtp /RTCsu /ZI
; File I:\Meu Drive\Pessoal\Backup\pc_casa\Documents\UVA\Estrutura de Dados 1\Estudos\Estudos\stack_vs_heap.cpp
;	COMDAT ?__empty_global_delete@@YAXPAXI@Z
_TEXT	SEGMENT
___formal$ = 8						; size = 4
___formal$ = 12						; size = 4
?__empty_global_delete@@YAXPAXI@Z PROC			; __empty_global_delete, COMDAT

	push	ebp
	mov	ebp, esp
	sub	esp, 192				; 000000c0H
	push	ebx
	push	esi
	push	edi
	mov	edi, ebp
	xor	ecx, ecx
	mov	eax, -858993460				; ccccccccH
	rep stosd
	mov	ecx, OFFSET __25C72A97_stack_vs_heap@cpp
	call	@__CheckForDebuggerJustMyCode@4
	pop	edi
	pop	esi
	pop	ebx
	add	esp, 192				; 000000c0H
	cmp	ebp, esp
	call	__RTC_CheckEsp
	mov	esp, ebp
	pop	ebp
	ret	0
?__empty_global_delete@@YAXPAXI@Z ENDP			; __empty_global_delete
_TEXT	ENDS
; Function compile flags: /Odtp /RTCsu /ZI
; File I:\Meu Drive\Pessoal\Backup\pc_casa\Documents\UVA\Estrutura de Dados 1\Estudos\Estudos\stack_vs_heap.cpp
;	COMDAT ?__empty_global_delete@@YAXPAX@Z
_TEXT	SEGMENT
___formal$ = 8						; size = 4
?__empty_global_delete@@YAXPAX@Z PROC			; __empty_global_delete, COMDAT

	push	ebp
	mov	ebp, esp
	sub	esp, 192				; 000000c0H
	push	ebx
	push	esi
	push	edi
	mov	edi, ebp
	xor	ecx, ecx
	mov	eax, -858993460				; ccccccccH
	rep stosd
	mov	ecx, OFFSET __25C72A97_stack_vs_heap@cpp
	call	@__CheckForDebuggerJustMyCode@4
	pop	edi
	pop	esi
	pop	ebx
	add	esp, 192				; 000000c0H
	cmp	ebp, esp
	call	__RTC_CheckEsp
	mov	esp, ebp
	pop	ebp
	ret	0
?__empty_global_delete@@YAXPAX@Z ENDP			; __empty_global_delete
_TEXT	ENDS
END
